target datalayout = "e-m:e-p270:32:32-p271:32:32-p272:64:64-i64:64-i128:128-f80:128-n8:16:32:64-S128"
target triple = "x86_64-pc-linux-gnu"

; Function Attrs: nounwind uwtable
define internal void @hmuladd(ptr noundef %0, ptr noundef %1, i32 noundef %2, i32 noundef %3) #1 {
  %5 = alloca ptr, align 8
  %6 = alloca ptr, align 8
  %7 = alloca i32, align 4
  %8 = alloca i32, align 4
  %9 = alloca i32, align 4
  store ptr %0, ptr %5, align 8, !tbaa !69
  store ptr %1, ptr %6, align 8, !tbaa !69
  store i32 %2, ptr %7, align 4, !tbaa !24
  store i32 %3, ptr %8, align 4, !tbaa !24
  call void @llvm.lifetime.start.p0(i64 4, ptr %9) #8
  store i32 0, ptr %9, align 4, !tbaa !24
  br label %10

10:                                               ; preds = %32, %4
  %11 = load i32, ptr %9, align 4, !tbaa !24
  %12 = load i32, ptr %8, align 4, !tbaa !24
  %13 = icmp slt i32 %11, %12
  br i1 %13, label %15, label %14

14:                                               ; preds = %10
  call void @llvm.lifetime.end.p0(i64 4, ptr %9) #8
  br label %35

15:                                               ; preds = %10
  %16 = load i32, ptr %7, align 4, !tbaa !24
  %17 = load ptr, ptr %6, align 8, !tbaa !69
  %18 = load i32, ptr %9, align 4, !tbaa !24
  %19 = sext i32 %18 to i64
  %20 = getelementptr inbounds i16, ptr %17, i64 %19
  %21 = load i16, ptr %20, align 2, !tbaa !84
  %22 = zext i16 %21 to i32
  %23 = mul nsw i32 %16, %22
  %24 = load ptr, ptr %5, align 8, !tbaa !69
  %25 = load i32, ptr %9, align 4, !tbaa !24
  %26 = sext i32 %25 to i64
  %27 = getelementptr inbounds i16, ptr %24, i64 %26
  %28 = load i16, ptr %27, align 2, !tbaa !84
  %29 = zext i16 %28 to i32
  %30 = add nsw i32 %29, %23
  %31 = trunc i32 %30 to i16
  store i16 %31, ptr %27, align 2, !tbaa !84
  br label %32

32:                                               ; preds = %15
  %33 = load i32, ptr %9, align 4, !tbaa !24
  %34 = add nsw i32 %33, 1
  store i32 %34, ptr %9, align 4, !tbaa !24
  br label %10, !llvm.loop !88

35:                                               ; preds = %14
  ret void
}